; Function Attrs: mustprogress nounwind uwtable
define hidden void @_ZN4llvh10TimerGroup8clearAllEv() local_unnamed_addr #0 align 2 {
entry:
  %0 = load atomic i64, ptr @_ZL9TimerLock acquire, align 8
  %tobool.not.i = icmp eq i64 %0, 0
  br i1 %tobool.not.i, label %if.then.i, label %_ZN4llvh13ManagedStaticINS_3sys10SmartMutexILb1EEENS_14object_creatorIS3_EENS_14object_deleterIS3_EEEdeEv.exit

if.then.i:                                        ; preds = %entry
  tail call void @_ZNK4llvh17ManagedStaticBase21RegisterManagedStaticEPFPvvEPFvS1_E(ptr noundef nonnull align 8 dereferenceable(24) @_ZL9TimerLock, ptr noundef nonnull @_ZN4llvh14object_creatorINS_3sys10SmartMutexILb1EEEE4callEv, ptr noundef nonnull @_ZN4llvh14object_deleterINS_3sys10SmartMutexILb1EEEE4callEPv) #21
  br label %_ZN4llvh13ManagedStaticINS_3sys10SmartMutexILb1EEENS_14object_creatorIS3_EENS_14object_deleterIS3_EEEdeEv.exit

_ZN4llvh13ManagedStaticINS_3sys10SmartMutexILb1EEENS_14object_creatorIS3_EENS_14object_deleterIS3_EEEdeEv.exit: ; preds = %entry, %if.then.i
  %1 = load atomic i64, ptr @_ZL9TimerLock monotonic, align 8
  %atomic-temp.i.0.i1.i = inttoptr i64 %1 to ptr
  %call.i.i = tail call noundef zeroext i1 @_ZN4llvh21llvm_is_multithreadedEv() #21
  br i1 %call.i.i, label %if.then.i.i, label %if.else.i.i

if.then.i.i:                                      ; preds = %_ZN4llvh13ManagedStaticINS_3sys10SmartMutexILb1EEENS_14object_creatorIS3_EENS_14object_deleterIS3_EEEdeEv.exit
  %call2.i.i = tail call noundef zeroext i1 @_ZN4llvh3sys9MutexImpl7acquireEv(ptr noundef nonnull align 8 dereferenceable(8) %atomic-temp.i.0.i1.i) #21
  br label %_ZN4llvh3sys15SmartScopedLockILb1EEC2ERNS0_10SmartMutexILb1EEE.exit

if.else.i.i:                                      ; preds = %_ZN4llvh13ManagedStaticINS_3sys10SmartMutexILb1EEENS_14object_creatorIS3_EENS_14object_deleterIS3_EEEdeEv.exit
  %acquired.i.i = getelementptr inbounds i8, ptr %atomic-temp.i.0.i1.i, i64 8
  %2 = load i32, ptr %acquired.i.i, align 8
  %inc.i.i = add i32 %2, 1
  store i32 %inc.i.i, ptr %acquired.i.i, align 8
  br label %_ZN4llvh3sys15SmartScopedLockILb1EEC2ERNS0_10SmartMutexILb1EEE.exit

_ZN4llvh3sys15SmartScopedLockILb1EEC2ERNS0_10SmartMutexILb1EEE.exit: ; preds = %if.then.i.i, %if.else.i.i
  %TG.010 = load ptr, ptr @_ZL14TimerGroupList, align 8
  %tobool.not11 = icmp eq ptr %TG.010, null
  br i1 %tobool.not11, label %for.end, label %for.body

for.body:                                         ; preds = %_ZN4llvh3sys15SmartScopedLockILb1EEC2ERNS0_10SmartMutexILb1EEE.exit, %_ZN4llvh10TimerGroup5clearEv.exit
  %TG.012 = phi ptr [ %TG.0, %_ZN4llvh10TimerGroup5clearEv.exit ], [ %TG.010, %_ZN4llvh3sys15SmartScopedLockILb1EEC2ERNS0_10SmartMutexILb1EEE.exit ]
  %3 = load atomic i64, ptr @_ZL9TimerLock acquire, align 8
  %tobool.not.i.i = icmp eq i64 %3, 0
  br i1 %tobool.not.i.i, label %if.then.i.i4, label %_ZN4llvh13ManagedStaticINS_3sys10SmartMutexILb1EEENS_14object_creatorIS3_EENS_14object_deleterIS3_EEEdeEv.exit.i

if.then.i.i4:                                     ; preds = %for.body
  tail call void @_ZNK4llvh17ManagedStaticBase21RegisterManagedStaticEPFPvvEPFvS1_E(ptr noundef nonnull align 8 dereferenceable(24) @_ZL9TimerLock, ptr noundef nonnull @_ZN4llvh14object_creatorINS_3sys10SmartMutexILb1EEEE4callEv, ptr noundef nonnull @_ZN4llvh14object_deleterINS_3sys10SmartMutexILb1EEEE4callEPv) #21
  br label %_ZN4llvh13ManagedStaticINS_3sys10SmartMutexILb1EEENS_14object_creatorIS3_EENS_14object_deleterIS3_EEEdeEv.exit.i

_ZN4llvh13ManagedStaticINS_3sys10SmartMutexILb1EEENS_14object_creatorIS3_EENS_14object_deleterIS3_EEEdeEv.exit.i: ; preds = %if.then.i.i4, %for.body
  %4 = load atomic i64, ptr @_ZL9TimerLock monotonic, align 8
  %atomic-temp.i.0.i1.i.i = inttoptr i64 %4 to ptr
  %call.i.i.i = tail call noundef zeroext i1 @_ZN4llvh21llvm_is_multithreadedEv() #21
  br i1 %call.i.i.i, label %if.then.i.i.i, label %if.else.i.i.i

if.then.i.i.i:                                    ; preds = %_ZN4llvh13ManagedStaticINS_3sys10SmartMutexILb1EEENS_14object_creatorIS3_EENS_14object_deleterIS3_EEEdeEv.exit.i
  %call2.i.i.i = tail call noundef zeroext i1 @_ZN4llvh3sys9MutexImpl7acquireEv(ptr noundef nonnull align 8 dereferenceable(8) %atomic-temp.i.0.i1.i.i) #21
  br label %_ZN4llvh3sys15SmartScopedLockILb1EEC2ERNS0_10SmartMutexILb1EEE.exit.i

if.else.i.i.i:                                    ; preds = %_ZN4llvh13ManagedStaticINS_3sys10SmartMutexILb1EEENS_14object_creatorIS3_EENS_14object_deleterIS3_EEEdeEv.exit.i
  %acquired.i.i.i = getelementptr inbounds i8, ptr %atomic-temp.i.0.i1.i.i, i64 8
  %5 = load i32, ptr %acquired.i.i.i, align 8
  %inc.i.i.i = add i32 %5, 1
  store i32 %inc.i.i.i, ptr %acquired.i.i.i, align 8
  br label %_ZN4llvh3sys15SmartScopedLockILb1EEC2ERNS0_10SmartMutexILb1EEE.exit.i

_ZN4llvh3sys15SmartScopedLockILb1EEC2ERNS0_10SmartMutexILb1EEE.exit.i: ; preds = %if.else.i.i.i, %if.then.i.i.i
  %FirstTimer.i = getelementptr inbounds i8, ptr %TG.012, i64 64
  %T.08.i = load ptr, ptr %FirstTimer.i, align 8
  %tobool.not9.i = icmp eq ptr %T.08.i, null
  br i1 %tobool.not9.i, label %for.end.i, label %for.body.i

for.body.i:                                       ; preds = %_ZN4llvh3sys15SmartScopedLockILb1EEC2ERNS0_10SmartMutexILb1EEE.exit.i, %for.body.i
  %T.010.i = phi ptr [ %T.0.i, %for.body.i ], [ %T.08.i, %_ZN4llvh3sys15SmartScopedLockILb1EEC2ERNS0_10SmartMutexILb1EEE.exit.i ]
  %Triggered.i.i = getelementptr inbounds i8, ptr %T.010.i, i64 129
  store i8 0, ptr %Triggered.i.i, align 1
  %Running.i.i = getelementptr inbounds i8, ptr %T.010.i, i64 128
  store i8 0, ptr %Running.i.i, align 8
  tail call void @llvm.memset.p0.i64(ptr noundef nonnull align 8 dereferenceable(64) %T.010.i, i8 0, i64 64, i1 false)
  %Next.i = getelementptr inbounds i8, ptr %T.010.i, i64 152
  %T.0.i = load ptr, ptr %Next.i, align 8
  %tobool.not.i3 = icmp eq ptr %T.0.i, null
  br i1 %tobool.not.i3, label %for.end.i, label %for.body.i, !llvm.loop !63

for.end.i:                                        ; preds = %for.body.i, %_ZN4llvh3sys15SmartScopedLockILb1EEC2ERNS0_10SmartMutexILb1EEE.exit.i
  %call.i.i3.i = tail call noundef zeroext i1 @_ZN4llvh21llvm_is_multithreadedEv() #21
  br i1 %call.i.i3.i, label %if.then.i.i6.i, label %if.else.i.i4.i

if.then.i.i6.i:                                   ; preds = %for.end.i
  %call2.i.i7.i = tail call noundef zeroext i1 @_ZN4llvh3sys9MutexImpl7releaseEv(ptr noundef nonnull align 8 dereferenceable(8) %atomic-temp.i.0.i1.i.i) #21
  br label %_ZN4llvh10TimerGroup5clearEv.exit

if.else.i.i4.i:                                   ; preds = %for.end.i
  %acquired.i.i5.i = getelementptr inbounds i8, ptr %atomic-temp.i.0.i1.i.i, i64 8
  %6 = load i32, ptr %acquired.i.i5.i, align 8
  %dec.i.i.i = add i32 %6, -1
  store i32 %dec.i.i.i, ptr %acquired.i.i5.i, align 8
  br label %_ZN4llvh10TimerGroup5clearEv.exit

_ZN4llvh10TimerGroup5clearEv.exit:                ; preds = %if.then.i.i6.i, %if.else.i.i4.i
  %Next = getelementptr inbounds i8, ptr %TG.012, i64 104
  %TG.0 = load ptr, ptr %Next, align 8
  %tobool.not = icmp eq ptr %TG.0, null
  br i1 %tobool.not, label %for.end, label %for.body, !llvm.loop !65

for.end:                                          ; preds = %_ZN4llvh10TimerGroup5clearEv.exit, %_ZN4llvh3sys15SmartScopedLockILb1EEC2ERNS0_10SmartMutexILb1EEE.exit
  %call.i.i5 = tail call noundef zeroext i1 @_ZN4llvh21llvm_is_multithreadedEv() #21
  br i1 %call.i.i5, label %if.then.i.i8, label %if.else.i.i6

if.then.i.i8:                                     ; preds = %for.end
  %call2.i.i9 = tail call noundef zeroext i1 @_ZN4llvh3sys9MutexImpl7releaseEv(ptr noundef nonnull align 8 dereferenceable(8) %atomic-temp.i.0.i1.i) #21
  br label %_ZN4llvh3sys15SmartScopedLockILb1EED2Ev.exit

if.else.i.i6:                                     ; preds = %for.end
  %acquired.i.i7 = getelementptr inbounds i8, ptr %atomic-temp.i.0.i1.i, i64 8
  %7 = load i32, ptr %acquired.i.i7, align 8
  %dec.i.i = add i32 %7, -1
  store i32 %dec.i.i, ptr %acquired.i.i7, align 8
  br label %_ZN4llvh3sys15SmartScopedLockILb1EED2Ev.exit

_ZN4llvh3sys15SmartScopedLockILb1EED2Ev.exit:     ; preds = %if.then.i.i8, %if.else.i.i6
  ret void
}